target datalayout = "e-m:e-p270:32:32-p271:32:32-p272:64:64-i64:64-i128:128-f80:128-n8:16:32:64-S128"
target triple = "x86_64-pc-linux-gnu"

%struct.SVQ3Frame = type { ptr, [2 x ptr], [2 x ptr], ptr, ptr }

; Function Attrs: nounwind uwtable
define internal void @free_picture(ptr noundef %0) #1 {
  %2 = alloca ptr, align 8
  %3 = alloca i32, align 4
  store ptr %0, ptr %2, align 8, !tbaa !90
  call void @llvm.lifetime.start.p0(i64 4, ptr %3) #11
  store i32 0, ptr %3, align 4, !tbaa !31
  br label %4

4:                                                ; preds = %13, %1
  %5 = load i32, ptr %3, align 4, !tbaa !31
  %6 = icmp slt i32 %5, 2
  br i1 %6, label %7, label %16

7:                                                ; preds = %4
  %8 = load ptr, ptr %2, align 8, !tbaa !90
  %9 = getelementptr inbounds nuw %struct.SVQ3Frame, ptr %8, i32 0, i32 1
  %10 = load i32, ptr %3, align 4, !tbaa !31
  %11 = sext i32 %10 to i64
  %12 = getelementptr inbounds [2 x ptr], ptr %9, i64 0, i64 %11
  call void @av_freep(ptr noundef %12)
  br label %13

13:                                               ; preds = %7
  %14 = load i32, ptr %3, align 4, !tbaa !31
  %15 = add nsw i32 %14, 1
  store i32 %15, ptr %3, align 4, !tbaa !31
  br label %4, !llvm.loop !165

16:                                               ; preds = %4
  %17 = load ptr, ptr %2, align 8, !tbaa !90
  %18 = getelementptr inbounds nuw %struct.SVQ3Frame, ptr %17, i32 0, i32 3
  call void @av_freep(ptr noundef %18)
  %19 = load ptr, ptr %2, align 8, !tbaa !90
  %20 = getelementptr inbounds nuw %struct.SVQ3Frame, ptr %19, i32 0, i32 0
  %21 = load ptr, ptr %20, align 8, !tbaa !43
  call void @av_frame_unref(ptr noundef %21)
  call void @llvm.lifetime.end.p0(i64 4, ptr %3) #11
  ret void
}