; Function Attrs: nounwind uwtable
define internal fastcc void @free_picture(ptr noundef %0) unnamed_addr #1 {
.critedge:
  %1 = getelementptr inbounds nuw i8, ptr %0, i64 8
  tail call void @av_freep(ptr noundef nonnull %1) #12
  %2 = getelementptr inbounds nuw i8, ptr %0, i64 16
  tail call void @av_freep(ptr noundef nonnull %2) #12
  %3 = getelementptr inbounds nuw i8, ptr %0, i64 40
  tail call void @av_freep(ptr noundef nonnull %3) #12
  %4 = load ptr, ptr %0, align 8, !tbaa !39
  tail call void @av_frame_unref(ptr noundef %4) #12
  ret void
}